; ModuleID = 'source-C-CXX/52/1049.c'
source_filename = "source-C-CXX/52/1049.c"
target datalayout = "e-m:e-p270:32:32-p271:32:32-p272:64:64-i64:64-f80:128-n8:16:32:64-S128"
target triple = "x86_64-pc-linux-gnu"

@.str = private unnamed_addr constant [3 x i8] c"%d\00", align 1
@.str.1 = private unnamed_addr constant [4 x i8] c",%d\00", align 1

; Function Attrs: nofree nounwind sspstrong uwtable
define dso_local i32 @main() local_unnamed_addr #0 {
  %1 = alloca [300 x i32], align 16
  %2 = alloca i32, align 4
  %3 = bitcast [300 x i32]* %1 to i8*
  call void @llvm.lifetime.start.p0i8(i64 1200, i8* nonnull %3) #3
  %4 = bitcast i32* %2 to i8*
  call void @llvm.lifetime.start.p0i8(i64 4, i8* nonnull %4) #3
  %5 = call i32 (i8*, ...) @__isoc99_scanf(i8* getelementptr inbounds ([3 x i8], [3 x i8]* @.str, i64 0, i64 0), i32* nonnull %2)
  %6 = load i32, i32* %2, align 4, !tbaa !5
  %7 = icmp sgt i32 %6, 0
  br i1 %7, label %12, label %30

8:                                                ; preds = %12
  %9 = icmp sgt i32 %17, 1
  br i1 %9, label %10, label %30

10:                                               ; preds = %8
  %11 = zext i32 %17 to i64
  br label %20

12:                                               ; preds = %0, %12
  %13 = phi i64 [ %16, %12 ], [ 0, %0 ]
  %14 = getelementptr inbounds [300 x i32], [300 x i32]* %1, i64 0, i64 %13
  %15 = call i32 (i8*, ...) @__isoc99_scanf(i8* getelementptr inbounds ([3 x i8], [3 x i8]* @.str, i64 0, i64 0), i32* nonnull %14)
  %16 = add nuw nsw i64 %13, 1
  %17 = load i32, i32* %2, align 4, !tbaa !5
  %18 = sext i32 %17 to i64
  %19 = icmp slt i64 %16, %18
  br i1 %19, label %12, label %8, !llvm.loop !9

20:                                               ; preds = %10, %56
  %21 = phi i64 [ 1, %10 ], [ %58, %56 ]
  %22 = phi i32 [ 1, %10 ], [ %57, %56 ]
  %23 = icmp sgt i32 %22, 0
  br i1 %23, label %24, label %47

24:                                               ; preds = %20
  %25 = getelementptr inbounds [300 x i32], [300 x i32]* %1, i64 0, i64 %21
  %26 = load i32, i32* %25, align 4, !tbaa !5
  %27 = zext i32 %22 to i64
  br label %37

28:                                               ; preds = %56
  %29 = icmp sgt i32 %57, 0
  br i1 %29, label %30, label %67

30:                                               ; preds = %0, %8, %28
  %31 = phi i32 [ %57, %28 ], [ 1, %8 ], [ 1, %0 ]
  %32 = getelementptr inbounds [300 x i32], [300 x i32]* %1, i64 0, i64 0
  %33 = zext i32 %31 to i64
  %34 = load i32, i32* %32, align 16, !tbaa !5
  %35 = call i32 (i8*, ...) @printf(i8* nonnull dereferenceable(1) getelementptr inbounds ([3 x i8], [3 x i8]* @.str, i64 0, i64 0), i32 %34)
  %36 = icmp eq i32 %31, 1
  br i1 %36, label %67, label %60

37:                                               ; preds = %24, %42
  %38 = phi i64 [ 0, %24 ], [ %43, %42 ]
  %39 = getelementptr inbounds [300 x i32], [300 x i32]* %1, i64 0, i64 %38
  %40 = load i32, i32* %39, align 4, !tbaa !5
  %41 = icmp eq i32 %26, %40
  br i1 %41, label %45, label %42

42:                                               ; preds = %37
  %43 = add nuw nsw i64 %38, 1
  %44 = icmp eq i64 %43, %27
  br i1 %44, label %50, label %37, !llvm.loop !11

45:                                               ; preds = %37
  %46 = trunc i64 %38 to i32
  br label %47

47:                                               ; preds = %45, %20
  %48 = phi i32 [ 0, %20 ], [ %46, %45 ]
  %49 = icmp eq i32 %48, %22
  br i1 %49, label %50, label %56

50:                                               ; preds = %42, %47
  %51 = getelementptr inbounds [300 x i32], [300 x i32]* %1, i64 0, i64 %21
  %52 = load i32, i32* %51, align 4, !tbaa !5
  %53 = sext i32 %22 to i64
  %54 = getelementptr inbounds [300 x i32], [300 x i32]* %1, i64 0, i64 %53
  store i32 %52, i32* %54, align 4, !tbaa !5
  %55 = add nsw i32 %22, 1
  br label %56

56:                                               ; preds = %47, %50
  %57 = phi i32 [ %55, %50 ], [ %22, %47 ]
  %58 = add nuw nsw i64 %21, 1
  %59 = icmp eq i64 %58, %11
  br i1 %59, label %28, label %20, !llvm.loop !12

60:                                               ; preds = %30, %60
  %61 = phi i64 [ %65, %60 ], [ 1, %30 ]
  %62 = getelementptr inbounds [300 x i32], [300 x i32]* %1, i64 0, i64 %61
  %63 = load i32, i32* %62, align 4, !tbaa !5
  %64 = call i32 (i8*, ...) @printf(i8* nonnull dereferenceable(1) getelementptr inbounds ([4 x i8], [4 x i8]* @.str.1, i64 0, i64 0), i32 %63)
  %65 = add nuw nsw i64 %61, 1
  %66 = icmp eq i64 %65, %33
  br i1 %66, label %67, label %60, !llvm.loop !13

67:                                               ; preds = %60, %30, %28
  call void @llvm.lifetime.end.p0i8(i64 4, i8* nonnull %4) #3
  call void @llvm.lifetime.end.p0i8(i64 1200, i8* nonnull %3) #3
  ret i32 0
}

; Function Attrs: argmemonly mustprogress nofree nosync nounwind willreturn
declare void @llvm.lifetime.start.p0i8(i64 immarg, i8* nocapture) #1

; Function Attrs: nofree nounwind
declare noundef i32 @__isoc99_scanf(i8* nocapture noundef readonly, ...) local_unnamed_addr #2

; Function Attrs: nofree nounwind
declare noundef i32 @printf(i8* nocapture noundef readonly, ...) local_unnamed_addr #2

; Function Attrs: argmemonly mustprogress nofree nosync nounwind willreturn
declare void @llvm.lifetime.end.p0i8(i64 immarg, i8* nocapture) #1


!llvm.module.flags = !{!0, !1, !2, !3}
!llvm.ident = !{!4}

!0 = !{i32 1, !"wchar_size", i32 4}
!1 = !{i32 7, !"PIC Level", i32 2}
!2 = !{i32 7, !"PIE Level", i32 2}
!3 = !{i32 7, !"uwtable", i32 1}
!4 = !{!"clang version 13.0.0"}
!5 = !{!6, !6, i64 0}
!6 = !{!"int", !7, i64 0}
!7 = !{!"omnipotent char", !8, i64 0}
!8 = !{!"Simple C/C++ TBAA"}
!9 = distinct !{!9, !10}
!10 = !{!"llvm.loop.mustprogress"}
!11 = distinct !{!11, !10}
!12 = distinct !{!12, !10}
!13 = distinct !{!13, !10, !14}
!14 = !{!"llvm.loop.peeled.count", i32 1}
